target datalayout = "e-m:e-p270:32:32-p271:32:32-p272:64:64-i64:64-i128:128-f80:128-n8:16:32:64-S128"
target triple = "x86_64-pc-linux-gnu"

%class.seq_decl_plugin = type { %class.decl_plugin.base, %class.ptr_vector, %class.ptr_vector.0, i8, %class.symbol, ptr, ptr, ptr, i8, i8, ptr }
%class.decl_plugin.base = type <{ ptr, ptr, i32 }>
%class.ptr_vector = type { %class.vector }
%class.vector = type { ptr }
%class.ptr_vector.0 = type { %class.vector.1 }
%class.vector.1 = type { ptr }
%class.symbol = type { ptr }
%class.decl_plugin = type <{ ptr, ptr, i32, [4 x i8] }>

@.str = private unnamed_addr constant [7 x i8] c"String\00", align 1
@_ZTV11decl_plugin = external unnamed_addr constant { [23 x ptr] }, align 8

; Function Attrs: mustprogress nounwind uwtable
define linkonce_odr hidden void @_ZN6vectorIP4sortLb0EjEC2Ev(ptr noundef nonnull align 8 dereferenceable(8) %0) unnamed_addr #6 comdat align 2 {
  %2 = alloca ptr, align 8
  store ptr %0, ptr %2, align 8, !tbaa !41
  %3 = load ptr, ptr %2, align 8
  %4 = getelementptr inbounds nuw %class.vector.1, ptr %3, i32 0, i32 0
  store ptr null, ptr %4, align 8, !tbaa !65
  ret void
}

; Function Attrs: mustprogress nounwind uwtable
define linkonce_odr hidden void @_ZN6vectorIPN15seq_decl_plugin4psigELb0EjEC2Ev(ptr noundef nonnull align 8 dereferenceable(8) %0) unnamed_addr #6 comdat align 2 {
  %2 = alloca ptr, align 8
  store ptr %0, ptr %2, align 8, !tbaa !43
  %3 = load ptr, ptr %2, align 8
  %4 = getelementptr inbounds nuw %class.vector, ptr %3, i32 0, i32 0
  store ptr null, ptr %4, align 8, !tbaa !48
  ret void
}

; Function Attrs: mustprogress nounwind uwtable
define linkonce_odr hidden void @_ZN11decl_pluginD2Ev(ptr noundef nonnull align 8 dereferenceable(20) %0) unnamed_addr #6 comdat align 2 {
  %2 = alloca ptr, align 8
  store ptr %0, ptr %2, align 8, !tbaa !33
  ret void
}

; Function Attrs: mustprogress nounwind uwtable
define linkonce_odr hidden void @_ZN10ptr_vectorI4sortEC2Ev(ptr noundef nonnull align 8 dereferenceable(8) %0) unnamed_addr #6 comdat align 2 {
  %2 = alloca ptr, align 8
  store ptr %0, ptr %2, align 8, !tbaa !39
  %3 = load ptr, ptr %2, align 8
  call void @_ZN6vectorIP4sortLb0EjEC2Ev(ptr noundef nonnull align 8 dereferenceable(8) %3) #3
  ret void
}

; Function Attrs: mustprogress nounwind uwtable
define linkonce_odr hidden void @_ZN10ptr_vectorIN15seq_decl_plugin4psigEEC2Ev(ptr noundef nonnull align 8 dereferenceable(8) %0) unnamed_addr #6 comdat align 2 {
  %2 = alloca ptr, align 8
  store ptr %0, ptr %2, align 8, !tbaa !37
  %3 = load ptr, ptr %2, align 8
  call void @_ZN6vectorIPN15seq_decl_plugin4psigELb0EjEC2Ev(ptr noundef nonnull align 8 dereferenceable(8) %3) #3
  ret void
}

; Function Attrs: inlinehint mustprogress nounwind uwtable
define linkonce_odr hidden void @_ZN11decl_pluginC2Ev(ptr noundef nonnull align 8 dereferenceable(20) %0) unnamed_addr #5 comdat align 2 {
  %2 = alloca ptr, align 8
  store ptr %0, ptr %2, align 8, !tbaa !33
  %3 = load ptr, ptr %2, align 8
  store ptr getelementptr inbounds inrange(-16, 168) ({ [23 x ptr] }, ptr @_ZTV11decl_plugin, i32 0, i32 0, i32 2), ptr %3, align 8, !tbaa !8
  %4 = getelementptr inbounds nuw %class.decl_plugin, ptr %3, i32 0, i32 1
  store ptr null, ptr %4, align 8, !tbaa !35
  %5 = getelementptr inbounds nuw %class.decl_plugin, ptr %3, i32 0, i32 2
  store i32 -1, ptr %5, align 8, !tbaa !36
  ret void
}

; Function Attrs: mustprogress uwtable
define hidden void @_ZN15seq_decl_pluginC2Ev(ptr noundef nonnull align 8 dereferenceable(96) %0) unnamed_addr #4 align 2 personality ptr @__gxx_personality_v0 {
  %2 = alloca ptr, align 8
  %3 = alloca ptr, align 8
  %4 = alloca i32, align 4
  store ptr %0, ptr %2, align 8, !tbaa !3
  %5 = load ptr, ptr %2, align 8
  call void @_ZN11decl_pluginC2Ev(ptr noundef nonnull align 8 dereferenceable(20) %5) #3
  store ptr getelementptr inbounds inrange(-16, 168) ({ [23 x ptr] }, ptr @_ZTV15seq_decl_plugin, i32 0, i32 0, i32 2), ptr %5, align 8, !tbaa !8
  %6 = getelementptr inbounds nuw %class.seq_decl_plugin, ptr %5, i32 0, i32 1
  call void @_ZN10ptr_vectorIN15seq_decl_plugin4psigEEC2Ev(ptr noundef nonnull align 8 dereferenceable(8) %6) #3
  %7 = getelementptr inbounds nuw %class.seq_decl_plugin, ptr %5, i32 0, i32 2
  call void @_ZN10ptr_vectorI4sortEC2Ev(ptr noundef nonnull align 8 dereferenceable(8) %7) #3
  %8 = getelementptr inbounds nuw %class.seq_decl_plugin, ptr %5, i32 0, i32 3
  store i8 0, ptr %8, align 8, !tbaa !10
  %9 = getelementptr inbounds nuw %class.seq_decl_plugin, ptr %5, i32 0, i32 4
  invoke void @_ZN6symbolC1EPKc(ptr noundef nonnull align 8 dereferenceable(8) %9, ptr noundef @.str)
          to label %10 unwind label %17

10:                                               ; preds = %1
  %11 = getelementptr inbounds nuw %class.seq_decl_plugin, ptr %5, i32 0, i32 5
  store ptr null, ptr %11, align 8, !tbaa !27
  %12 = getelementptr inbounds nuw %class.seq_decl_plugin, ptr %5, i32 0, i32 6
  store ptr null, ptr %12, align 8, !tbaa !28
  %13 = getelementptr inbounds nuw %class.seq_decl_plugin, ptr %5, i32 0, i32 7
  store ptr null, ptr %13, align 8, !tbaa !29
  %14 = getelementptr inbounds nuw %class.seq_decl_plugin, ptr %5, i32 0, i32 8
  store i8 0, ptr %14, align 8, !tbaa !30
  %15 = getelementptr inbounds nuw %class.seq_decl_plugin, ptr %5, i32 0, i32 9
  store i8 0, ptr %15, align 1, !tbaa !31
  %16 = getelementptr inbounds nuw %class.seq_decl_plugin, ptr %5, i32 0, i32 10
  store ptr null, ptr %16, align 8, !tbaa !32
  ret void

17:                                               ; preds = %1
  %18 = landingpad { ptr, i32 }
          cleanup
  %19 = extractvalue { ptr, i32 } %18, 0
  store ptr %19, ptr %3, align 8
  %20 = extractvalue { ptr, i32 } %18, 1
  store i32 %20, ptr %4, align 4
  call void @_ZN6vectorIP4sortLb0EjED2Ev(ptr noundef nonnull align 8 dereferenceable(8) %7) #3
  call void @_ZN6vectorIPN15seq_decl_plugin4psigELb0EjED2Ev(ptr noundef nonnull align 8 dereferenceable(8) %6) #3
  call void @_ZN11decl_pluginD2Ev(ptr noundef nonnull align 8 dereferenceable(20) %5) #3
  br label %21

21:                                               ; preds = %17
  %22 = load ptr, ptr %3, align 8
  %23 = load i32, ptr %4, align 4
  %24 = insertvalue { ptr, i32 } poison, ptr %22, 0
  %25 = insertvalue { ptr, i32 } %24, i32 %23, 1
  resume { ptr, i32 } %25
}